target datalayout = "e-m:e-p270:32:32-p271:32:32-p272:64:64-i64:64-i128:128-f80:128-n8:16:32:64-S128"
target triple = "x86_64-pc-linux-gnu"

%struct.Vec_Int_t_ = type { i32, i32, ptr }
%struct.Gia_Man_t_ = type { ptr, ptr, i32, i32, i32, i32, ptr, ptr, i32, i32, i32, ptr, ptr, %struct.Vec_Int_t_, %struct.Vec_Int_t_, i32, i32, i32, %struct.Vec_Int_t_, ptr, ptr, ptr, i32, i32, i32, i32, ptr, ptr, ptr, ptr, ptr, i32, i32, ptr, i32, ptr, ptr, ptr, ptr, ptr, ptr, ptr, ptr, ptr, ptr, ptr, ptr, ptr, ptr, ptr, ptr, ptr, ptr, %struct.Vec_Int_t_, %struct.Vec_Int_t_, ptr, ptr, ptr, ptr, ptr, ptr, ptr, ptr, ptr, ptr, ptr, ptr, ptr, ptr, ptr, ptr, ptr, ptr, ptr, ptr, ptr, i32, float, float, ptr, ptr, i32, ptr, ptr, ptr, ptr, ptr, ptr, ptr, ptr, ptr, ptr, ptr, ptr, ptr, ptr, ptr, i64, i64, ptr, ptr, i32, i32, i32, i32, i32, i32, i32, i32, i32, i32, i32, i32, ptr, ptr, ptr, ptr, ptr, ptr, ptr, ptr, i32, i32, i32, ptr, i32, i32, ptr, ptr, ptr, ptr, ptr, ptr, i32, i32, ptr, %struct.Vec_Int_t_, %struct.Vec_Int_t_, %struct.Vec_Int_t_, ptr, ptr, ptr, i32, i32, i32, i32, ptr, ptr, ptr, ptr, ptr }

; Function Attrs: nounwind uwtable
define ptr @Lf_ManPerformMapping(ptr noundef %0, ptr noundef %1) #0 {
  %3 = alloca ptr, align 8
  %4 = alloca ptr, align 8
  %5 = alloca ptr, align 8
  %6 = alloca ptr, align 8
  %7 = alloca ptr, align 8
  %8 = alloca i32, align 4
  store ptr %0, ptr %4, align 8, !tbaa !28
  store ptr %1, ptr %5, align 8, !tbaa !194
  call void @llvm.lifetime.start.p0(i64 8, ptr %6) #14
  %9 = load ptr, ptr %4, align 8, !tbaa !28
  %10 = getelementptr inbounds nuw %struct.Gia_Man_t_, ptr %9, i32 0, i32 95
  %11 = load ptr, ptr %10, align 8, !tbaa !151
  %12 = icmp ne ptr %11, null
  br i1 %12, label %13, label %67

13:                                               ; preds = %2
  %14 = load ptr, ptr %4, align 8, !tbaa !28
  %15 = getelementptr inbounds nuw %struct.Gia_Man_t_, ptr %14, i32 0, i32 95
  %16 = load ptr, ptr %15, align 8, !tbaa !151
  %17 = call i32 @Tim_ManBoxNum(ptr noundef %16)
  %18 = icmp ne i32 %17, 0
  br i1 %18, label %19, label %67

19:                                               ; preds = %13
  %20 = load ptr, ptr %4, align 8, !tbaa !28
  %21 = call i32 @Gia_ManIsNormalized(ptr noundef %20)
  %22 = icmp ne i32 %21, 0
  br i1 %22, label %23, label %67

23:                                               ; preds = %19
  call void @llvm.lifetime.start.p0(i64 8, ptr %7) #14
  %24 = load ptr, ptr %4, align 8, !tbaa !28
  %25 = getelementptr inbounds nuw %struct.Gia_Man_t_, ptr %24, i32 0, i32 95
  %26 = load ptr, ptr %25, align 8, !tbaa !151
  store ptr %26, ptr %7, align 8, !tbaa !259
  %27 = load ptr, ptr %7, align 8, !tbaa !259
  %28 = call ptr @Tim_ManDup(ptr noundef %27, i32 noundef 1)
  %29 = load ptr, ptr %4, align 8, !tbaa !28
  %30 = getelementptr inbounds nuw %struct.Gia_Man_t_, ptr %29, i32 0, i32 95
  store ptr %28, ptr %30, align 8, !tbaa !151
  %31 = load ptr, ptr %4, align 8, !tbaa !28
  %32 = call ptr @Gia_ManDupUnnormalize(ptr noundef %31)
  store ptr %32, ptr %6, align 8, !tbaa !28
  %33 = load ptr, ptr %6, align 8, !tbaa !28
  %34 = icmp eq ptr %33, null
  br i1 %34, label %35, label %36

35:                                               ; preds = %23
  store ptr null, ptr %3, align 8
  store i32 1, ptr %8, align 4
  br label %64

36:                                               ; preds = %23
  %37 = load ptr, ptr %6, align 8, !tbaa !28
  %38 = load ptr, ptr %4, align 8, !tbaa !28
  call void @Gia_ManTransferTiming(ptr noundef %37, ptr noundef %38)
  %39 = load ptr, ptr %6, align 8, !tbaa !28
  store ptr %39, ptr %4, align 8, !tbaa !28
  %40 = load ptr, ptr %4, align 8, !tbaa !28
  %41 = load ptr, ptr %5, align 8, !tbaa !194
  %42 = call ptr @Lf_ManPerformMappingInt(ptr noundef %40, ptr noundef %41)
  store ptr %42, ptr %6, align 8, !tbaa !28
  %43 = load ptr, ptr %6, align 8, !tbaa !28
  %44 = load ptr, ptr %4, align 8, !tbaa !28
  %45 = icmp ne ptr %43, %44
  br i1 %45, label %46, label %50

46:                                               ; preds = %36
  %47 = load ptr, ptr %6, align 8, !tbaa !28
  %48 = load ptr, ptr %4, align 8, !tbaa !28
  call void @Gia_ManTransferTiming(ptr noundef %47, ptr noundef %48)
  %49 = load ptr, ptr %4, align 8, !tbaa !28
  call void @Gia_ManStop(ptr noundef %49)
  br label %50

50:                                               ; preds = %46, %36
  %51 = load ptr, ptr %6, align 8, !tbaa !28
  store ptr %51, ptr %4, align 8, !tbaa !28
  %52 = call ptr @Gia_ManDupNormalize(ptr noundef %51, i32 noundef 0)
  store ptr %52, ptr %6, align 8, !tbaa !28
  %53 = load ptr, ptr %6, align 8, !tbaa !28
  %54 = load ptr, ptr %4, align 8, !tbaa !28
  call void @Gia_ManTransferMapping(ptr noundef %53, ptr noundef %54)
  %55 = load ptr, ptr %6, align 8, !tbaa !28
  %56 = load ptr, ptr %4, align 8, !tbaa !28
  call void @Gia_ManTransferTiming(ptr noundef %55, ptr noundef %56)
  %57 = load ptr, ptr %4, align 8, !tbaa !28
  call void @Gia_ManStop(ptr noundef %57)
  %58 = load ptr, ptr %6, align 8, !tbaa !28
  %59 = getelementptr inbounds nuw %struct.Gia_Man_t_, ptr %58, i32 0, i32 95
  %60 = load ptr, ptr %59, align 8, !tbaa !151
  call void @Tim_ManStop(ptr noundef %60)
  %61 = load ptr, ptr %7, align 8, !tbaa !259
  %62 = load ptr, ptr %6, align 8, !tbaa !28
  %63 = getelementptr inbounds nuw %struct.Gia_Man_t_, ptr %62, i32 0, i32 95
  store ptr %61, ptr %63, align 8, !tbaa !151
  store i32 0, ptr %8, align 4
  br label %64

64:                                               ; preds = %50, %35
  call void @llvm.lifetime.end.p0(i64 8, ptr %7) #14
  %65 = load i32, ptr %8, align 4
  switch i32 %65, label %75 [
    i32 0, label %66
  ]

66:                                               ; preds = %64
  br label %73

67:                                               ; preds = %19, %13, %2
  %68 = load ptr, ptr %4, align 8, !tbaa !28
  %69 = load ptr, ptr %5, align 8, !tbaa !194
  %70 = call ptr @Lf_ManPerformMappingInt(ptr noundef %68, ptr noundef %69)
  store ptr %70, ptr %6, align 8, !tbaa !28
  %71 = load ptr, ptr %6, align 8, !tbaa !28
  %72 = load ptr, ptr %4, align 8, !tbaa !28
  call void @Gia_ManTransferTiming(ptr noundef %71, ptr noundef %72)
  br label %73

73:                                               ; preds = %67, %66
  %74 = load ptr, ptr %6, align 8, !tbaa !28
  store ptr %74, ptr %3, align 8
  store i32 1, ptr %8, align 4
  br label %75

75:                                               ; preds = %73, %64
  call void @llvm.lifetime.end.p0(i64 8, ptr %6) #14
  %76 = load ptr, ptr %3, align 8
  ret ptr %76
}