; Function Attrs: nounwind uwtable
define noundef ptr @Lf_ManPerformMapping(ptr noundef %0, ptr noundef %1) local_unnamed_addr #5 {
  %3 = getelementptr inbounds nuw i8, ptr %0, i64 736
  %4 = load ptr, ptr %3, align 8, !tbaa !177
  %.not = icmp eq ptr %4, null
  br i1 %.not, label %20, label %5

5:                                                ; preds = %2
  %6 = tail call i32 @Tim_ManBoxNum(ptr noundef nonnull %4) #34
  %.not40 = icmp eq i32 %6, 0
  br i1 %.not40, label %20, label %7

7:                                                ; preds = %5
  %8 = tail call i32 @Gia_ManIsNormalized(ptr noundef nonnull %0) #34
  %.not41 = icmp eq i32 %8, 0
  br i1 %.not41, label %20, label %9

9:                                                ; preds = %7
  %10 = load ptr, ptr %3, align 8, !tbaa !177
  %11 = tail call ptr @Tim_ManDup(ptr noundef %10, i32 noundef 1) #34
  store ptr %11, ptr %3, align 8, !tbaa !177
  %12 = tail call ptr @Gia_ManDupUnnormalize(ptr noundef nonnull %0) #34
  %.not43 = icmp eq ptr %12, null
  br i1 %.not43, label %22, label %13

13:                                               ; preds = %9
  tail call void @Gia_ManTransferTiming(ptr noundef nonnull %12, ptr noundef nonnull %0) #34
  %14 = tail call ptr @Lf_ManPerformMappingInt(ptr noundef nonnull %12, ptr noundef %1)
  %.not42 = icmp eq ptr %14, %12
  br i1 %.not42, label %16, label %15

15:                                               ; preds = %13
  tail call void @Gia_ManTransferTiming(ptr noundef %14, ptr noundef nonnull %12) #34
  tail call void @Gia_ManStop(ptr noundef nonnull %12) #34
  br label %16

16:                                               ; preds = %15, %13
  %17 = tail call ptr @Gia_ManDupNormalize(ptr noundef %14, i32 noundef 0) #34
  tail call void @Gia_ManTransferMapping(ptr noundef %17, ptr noundef %14) #34
  tail call void @Gia_ManTransferTiming(ptr noundef %17, ptr noundef %14) #34
  tail call void @Gia_ManStop(ptr noundef %14) #34
  %18 = getelementptr inbounds nuw i8, ptr %17, i64 736
  %19 = load ptr, ptr %18, align 8, !tbaa !177
  tail call void @Tim_ManStop(ptr noundef %19) #34
  store ptr %10, ptr %18, align 8, !tbaa !177
  br label %22

20:                                               ; preds = %7, %5, %2
  %21 = tail call ptr @Lf_ManPerformMappingInt(ptr noundef nonnull %0, ptr noundef %1)
  tail call void @Gia_ManTransferTiming(ptr noundef %21, ptr noundef nonnull %0) #34
  br label %22

22:                                               ; preds = %16, %9, %20
  %.1 = phi ptr [ %21, %20 ], [ %17, %16 ], [ null, %9 ]
  ret ptr %.1
}